; Function Attrs: nounwind sspstrong uwtable
define dso_local i64 @rb_define_class(ptr noundef nonnull %0, i64 noundef %1) local_unnamed_addr #0 {
  %3 = tail call i64 @rb_intern(ptr noundef nonnull %0) #19
  %4 = load i64, ptr @rb_cObject, align 8, !tbaa !29
  %5 = tail call i32 @rb_const_defined(i64 noundef %4, i64 noundef %3) #19
  %.not = icmp eq i32 %5, 0
  br i1 %.not, label %26, label %6

6:                                                ; preds = %2
  %7 = load i64, ptr @rb_cObject, align 8, !tbaa !29
  %8 = tail call i64 @rb_const_get(i64 noundef %7, i64 noundef %3) #19
  %9 = icmp eq i64 %8, 0
  %10 = and i64 %8, 7
  %11 = icmp ne i64 %10, 0
  %12 = or i1 %9, %11
  br i1 %12, label %rbimpl_RB_TYPE_P_fastpath.exit.thread, label %rbimpl_RB_TYPE_P_fastpath.exit

rbimpl_RB_TYPE_P_fastpath.exit:                   ; preds = %6
  %13 = inttoptr i64 %8 to ptr
  %14 = load i64, ptr %13, align 8, !tbaa !35
  %15 = and i64 %14, 31
  %16 = icmp eq i64 %15, 2
  br i1 %16, label %19, label %rbimpl_RB_TYPE_P_fastpath.exit.thread

rbimpl_RB_TYPE_P_fastpath.exit.thread:            ; preds = %6, %rbimpl_RB_TYPE_P_fastpath.exit
  %17 = load i64, ptr @rb_eTypeError, align 8, !tbaa !29
  %18 = tail call i64 @rb_obj_class(i64 noundef %8) #19
  tail call void (i64, ptr, ...) @rb_raise(i64 noundef %17, ptr noundef nonnull @.str.12, ptr noundef nonnull %0, i64 noundef %18) #21
  unreachable

19:                                               ; preds = %rbimpl_RB_TYPE_P_fastpath.exit
  %20 = getelementptr inbounds nuw i8, ptr %13, i64 16
  %21 = load i64, ptr %20, align 8, !tbaa !34
  %22 = tail call i64 @rb_class_real(i64 noundef %21) #23
  %.not23 = icmp eq i64 %22, %1
  br i1 %.not23, label %25, label %23

23:                                               ; preds = %19
  %24 = load i64, ptr @rb_eTypeError, align 8, !tbaa !29
  tail call void (i64, ptr, ...) @rb_raise(i64 noundef %24, ptr noundef nonnull @.str.13, ptr noundef nonnull %0) #21
  unreachable

25:                                               ; preds = %19
  tail call void @rb_vm_register_global_object(i64 noundef %8) #19
  br label %35

26:                                               ; preds = %2
  %.not22 = icmp eq i64 %1, 0
  br i1 %.not22, label %27, label %29

27:                                               ; preds = %26
  %28 = load i64, ptr @rb_eArgError, align 8, !tbaa !29
  tail call void (i64, ptr, ...) @rb_raise(i64 noundef %28, ptr noundef nonnull @.str.14, ptr noundef nonnull %0) #21
  unreachable

29:                                               ; preds = %26
  %30 = tail call i64 @rb_class_new(i64 noundef %1)
  %31 = tail call i64 @rb_make_metaclass(i64 noundef %30, i64 poison)
  tail call void @rb_vm_register_global_object(i64 noundef %30) #19
  %32 = load i64, ptr @rb_cObject, align 8, !tbaa !29
  tail call void @rb_const_set(i64 noundef %32, i64 noundef %3, i64 noundef %30) #19
  %.pr.i.i = load i64, ptr @rb_class_inherited.rbimpl_id, align 8, !tbaa !29
  %.not4.i.i = icmp eq i64 %.pr.i.i, 0
  br i1 %.not4.i.i, label %.lr.ph.i.i, label %rb_class_inherited.exit

.lr.ph.i.i:                                       ; preds = %29, %.lr.ph.i.i
  %33 = tail call i64 @rb_intern2(ptr noundef nonnull @.str.11, i64 noundef 9) #19
  store i64 %33, ptr @rb_class_inherited.rbimpl_id, align 8, !tbaa !29
  %.not.i.i = icmp eq i64 %33, 0
  br i1 %.not.i.i, label %.lr.ph.i.i, label %rb_class_inherited.exit, !llvm.loop !53

rb_class_inherited.exit:                          ; preds = %.lr.ph.i.i, %29
  %.lcssa.i.i = phi i64 [ %.pr.i.i, %29 ], [ %33, %.lr.ph.i.i ]
  %34 = tail call i64 (i64, i64, i32, ...) @rb_funcall(i64 noundef %1, i64 noundef %.lcssa.i.i, i32 noundef 1, i64 noundef %30) #19
  br label %35

35:                                               ; preds = %rb_class_inherited.exit, %25
  %.0 = phi i64 [ %8, %25 ], [ %30, %rb_class_inherited.exit ]
  ret i64 %.0
}